; Function Attrs: mustprogress uwtable
define noundef i32 @_ZN5dtm_t5writeEjj(ptr nocapture noundef nonnull align 8 dereferenceable(928) %0, i32 noundef %1, i32 noundef %2) local_unnamed_addr #0 align 2 {
  %.sroa.01.0.insert.ext = zext i32 %1 to i64
  %.sroa.01.0.insert.insert = or disjoint i64 %.sroa.01.0.insert.ext, 8589934592
  %4 = getelementptr inbounds i8, ptr %0, i64 872
  store i64 %.sroa.01.0.insert.insert, ptr %4, align 8
  %.sroa.22.0..sroa_idx.i = getelementptr inbounds i8, ptr %0, i64 880
  store i32 %2, ptr %.sroa.22.0..sroa_idx.i, align 8
  %5 = getelementptr inbounds i8, ptr %0, i64 728
  %6 = load ptr, ptr %5, align 8
  tail call void @_ZN9context_t9switch_toEv(ptr noundef nonnull align 8 dereferenceable(32) %6)
  %7 = getelementptr inbounds i8, ptr %0, i64 888
  %8 = load i32, ptr %7, align 8
  ret i32 %8
}